ccopy_reg
_reconstructor
p0
(cpandas.core.series
Series
p1
c__builtin__
object
p2
Ntp3
Rp4
(dp5
S'_metadata'
p6
(lp7
S'name'
p8
asS'_data'
p9
g0
(cpandas.core.internals
SingleBlockManager
p10
g2
Ntp11
Rp12
((lp13
cpandas.indexes.base
_new_Index
p14
(cpandas.indexes.base
Index
p15
(dp16
S'data'
p17
cnumpy.core.multiarray
_reconstruct
p18
(cnumpy
ndarray
p19
(I0
tp20
S'b'
p21
tp22
Rp23
(I1
(I12
tp24
cnumpy
dtype
p25
(S'O8'
p26
I0
I1
tp27
Rp28
(I3
S'|'
p29
NNNI-1
I-1
I63
tp30
bI00
(lp31
S'Agegroup_2'
p32
aS'Agegroup_3'
p33
aS'Agegroup_4'
p34
aS'Agegroup_5'
p35
aS'Agegroup_6'
p36
aS'Agegroup_7'
p37
aS'Agegroup_8'
p38
aS'Agegroup_9'
p39
aS'Agegroup_10'
p40
aS'Agegroup_11'
p41
aS'Agegroup_12'
p42
aS'Agegroup_13'
p43
atp44
bsg8
Nstp45
Rp46
a(lp47
g18
(g19
(I0
tp48
g21
tp49
Rp50
(I1
(I12
tp51
g25
(S'f8'
p52
I0
I1
tp53
Rp54
(I3
S'<'
p55
NNNI-1
I-1
I0
tp56
bI00
S'\x00\x00\x00\x00\x00\x00\x00\x00\x00\x00\x00\x00\x00\x00\x00\x00\x00\x00\x00\x00\x00\x00\x00\x00\x00\x00\x00\x00\x00\x00\x00\x00\x00\x00\x00\x00\x00\x00\x00\x00\x00\x00\x00\x00\x00\x00\x00\x00\x00\x00\x00\x00\x00\x00\x00\x00\x00\x00\x00\x00\x00\x00\x00\x00\x00\x00\x00\x00\x00\x00\x00\x00\x00\x00\x00\x00\x00\x00\x00\x00\x00\x00\x00\x00\x00\x00\x00\x00\x00\x00\x00\x00\x00\x00\x00\x00'
p57
tp58
ba(lp59
g14
(g15
(dp60
g17
g18
(g19
(I0
tp61
g21
tp62
Rp63
(I1
(I12
tp64
g28
I00
(lp65
g32
ag33
ag34
ag35
ag36
ag37
ag38
ag39
ag40
ag41
ag42
ag43
atp66
bsg8
Nstp67
Rp68
a(dp69
S'0.14.1'
p70
(dp71
S'axes'
p72
g13
sS'blocks'
p73
(lp74
(dp75
S'mgr_locs'
p76
c__builtin__
slice
p77
(I0
I12
I1
tp78
Rp79
sS'values'
p80
g50
sasstp81
bsS'_typ'
p82
S'series'
p83
sg8
I0
sb.