ccopy_reg
_reconstructor
p0
(cpandas.core.series
Series
p1
c__builtin__
object
p2
Ntp3
Rp4
(dp5
S'_metadata'
p6
(lp7
S'name'
p8
asS'_data'
p9
g0
(cpandas.core.internals
SingleBlockManager
p10
g2
Ntp11
Rp12
((lp13
cpandas.indexes.base
_new_Index
p14
(cpandas.indexes.base
Index
p15
(dp16
S'data'
p17
cnumpy.core.multiarray
_reconstruct
p18
(cnumpy
ndarray
p19
(I0
tp20
S'b'
p21
tp22
Rp23
(I1
(I5
tp24
cnumpy
dtype
p25
(S'O8'
p26
I0
I1
tp27
Rp28
(I3
S'|'
p29
NNNI-1
I-1
I63
tp30
bI00
(lp31
S'agefbirth_0'
p32
aS'agefbirth_1'
p33
aS'agefbirth_2'
p34
aS'agefbirth_3'
p35
aS'agefbirth_4'
p36
atp37
bsg8
Nstp38
Rp39
a(lp40
g18
(g19
(I0
tp41
g21
tp42
Rp43
(I1
(I5
tp44
g25
(S'f8'
p45
I0
I1
tp46
Rp47
(I3
S'<'
p48
NNNI-1
I-1
I0
tp49
bI00
S'\x00\x00\x00\x00\x00\x00\x00\x00\x00\x00\x00\x00\x00\x00\x00\x00\x00\x00\x00\x00\x00\x00\x00\x00\x00\x00\x00\x00\x00\x00\x00\x00\x00\x00\x00\x00\x00\x00\xf0?'
p50
tp51
ba(lp52
g14
(g15
(dp53
g17
g18
(g19
(I0
tp54
g21
tp55
Rp56
(I1
(I5
tp57
g28
I00
(lp58
g32
ag33
ag34
ag35
ag36
atp59
bsg8
Nstp60
Rp61
a(dp62
S'0.14.1'
p63
(dp64
S'axes'
p65
g13
sS'blocks'
p66
(lp67
(dp68
S'mgr_locs'
p69
c__builtin__
slice
p70
(I0
I5
I1
tp71
Rp72
sS'values'
p73
g43
sasstp74
bsS'_typ'
p75
S'series'
p76
sg8
I0
sb.