ccopy_reg
_reconstructor
p0
(cpandas.core.series
Series
p1
c__builtin__
object
p2
Ntp3
Rp4
(dp5
S'_metadata'
p6
(lp7
S'name'
p8
asS'_data'
p9
g0
(cpandas.core.internals
SingleBlockManager
p10
g2
Ntp11
Rp12
((lp13
cpandas.indexes.base
_new_Index
p14
(cpandas.indexes.base
Index
p15
(dp16
S'data'
p17
cnumpy.core.multiarray
_reconstruct
p18
(cnumpy
ndarray
p19
(I0
tp20
S'b'
p21
tp22
Rp23
(I1
(I2
tp24
cnumpy
dtype
p25
(S'O8'
p26
I0
I1
tp27
Rp28
(I3
S'|'
p29
NNNI-1
I-1
I63
tp30
bI00
(lp31
S'currenthrt_0'
p32
aS'currenthrt_1'
p33
atp34
bsg8
Nstp35
Rp36
a(lp37
g18
(g19
(I0
tp38
g21
tp39
Rp40
(I1
(I2
tp41
g25
(S'f8'
p42
I0
I1
tp43
Rp44
(I3
S'<'
p45
NNNI-1
I-1
I0
tp46
bI00
S'\x00\x00\x00\x00\x00\x00\xf0?\x00\x00\x00\x00\x00\x00\x00\x00'
p47
tp48
ba(lp49
g14
(g15
(dp50
g17
g18
(g19
(I0
tp51
g21
tp52
Rp53
(I1
(I2
tp54
g28
I00
(lp55
g32
ag33
atp56
bsg8
Nstp57
Rp58
a(dp59
S'0.14.1'
p60
(dp61
S'axes'
p62
g13
sS'blocks'
p63
(lp64
(dp65
S'mgr_locs'
p66
c__builtin__
slice
p67
(I0
I2
I1
tp68
Rp69
sS'values'
p70
g40
sasstp71
bsS'_typ'
p72
S'series'
p73
sg8
I0
sb.