ccopy_reg
_reconstructor
p0
(cpandas.core.series
Series
p1
c__builtin__
object
p2
Ntp3
Rp4
(dp5
S'_metadata'
p6
(lp7
S'name'
p8
asS'_data'
p9
g0
(cpandas.core.internals
SingleBlockManager
p10
g2
Ntp11
Rp12
((lp13
cpandas.indexes.base
_new_Index
p14
(cpandas.indexes.base
Index
p15
(dp16
S'data'
p17
cnumpy.core.multiarray
_reconstruct
p18
(cnumpy
ndarray
p19
(I0
tp20
S'b'
p21
tp22
Rp23
(I1
(I3
tp24
cnumpy
dtype
p25
(S'O8'
p26
I0
I1
tp27
Rp28
(I3
S'|'
p29
NNNI-1
I-1
I63
tp30
bI00
(lp31
S'menopaus_1'
p32
aS'menopaus_2'
p33
aS'menopaus_3'
p34
atp35
bsg8
Nstp36
Rp37
a(lp38
g18
(g19
(I0
tp39
g21
tp40
Rp41
(I1
(I3
tp42
g25
(S'f8'
p43
I0
I1
tp44
Rp45
(I3
S'<'
p46
NNNI-1
I-1
I0
tp47
bI00
S'\x00\x00\x00\x00\x00\x00\xf0?\x00\x00\x00\x00\x00\x00\x00\x00\x00\x00\x00\x00\x00\x00\x00\x00'
p48
tp49
ba(lp50
g14
(g15
(dp51
g17
g18
(g19
(I0
tp52
g21
tp53
Rp54
(I1
(I3
tp55
g28
I00
(lp56
g32
ag33
ag34
atp57
bsg8
Nstp58
Rp59
a(dp60
S'0.14.1'
p61
(dp62
S'axes'
p63
g13
sS'blocks'
p64
(lp65
(dp66
S'mgr_locs'
p67
c__builtin__
slice
p68
(I0
I3
I1
tp69
Rp70
sS'values'
p71
g41
sasstp72
bsS'_typ'
p73
S'series'
p74
sg8
I0
sb.